target datalayout = "e-m:e-p270:32:32-p271:32:32-p272:64:64-i64:64-i128:128-f80:128-n8:16:32:64-S128"
target triple = "x86_64-pc-linux-gnu"

%struct.pmix_mca_base_framework_t = type { ptr, ptr, ptr, ptr, ptr, ptr, i32, i32, ptr, ptr, i32, i32, %struct.pmix_list_t, %struct.pmix_list_t }
%struct.pmix_list_t = type { %struct.pmix_object_t, %struct.pmix_list_item_t, i64 }
%struct.pmix_object_t = type { %union.pthread_mutex_t, ptr, i32, %struct.pmix_tma }
%union.pthread_mutex_t = type { %struct.__pthread_mutex_s }
%struct.__pthread_mutex_s = type { i32, i32, i32, i32, i32, i16, i16, %struct.__pthread_internal_list }
%struct.__pthread_internal_list = type { ptr, ptr }
%struct.pmix_tma = type { ptr, ptr, ptr, ptr, ptr, ptr, ptr, ptr }
%struct.pmix_list_item_t = type { %struct.pmix_object_t, ptr, ptr, i32 }
%struct.pmix_output_desc_t = type { i8, i8, i32, i8, i32, ptr, ptr, i32, ptr, i32, i8, i8, i8, i8, ptr, i32, i32 }
%struct.pmix_bfrop_type_info_t = type { %struct.pmix_object_t, i16, ptr, ptr, ptr, ptr, ptr }
%struct.pmix_pointer_array_t = type { %struct.pmix_object_t, i32, i32, i32, i32, i32, ptr, ptr }
%struct.pmix_query = type { ptr, ptr, i64 }

@pmix_bfrops_base_framework = external global %struct.pmix_mca_base_framework_t, align 8
@pmix_output_info = external global [0 x %struct.pmix_output_desc_t], align 8
@.str.29 = private unnamed_addr constant [30 x i8] c"pmix_bfrop_unpack: %d queries\00", align 1

; Function Attrs: inlinehint nounwind uwtable
define internal ptr @pmix_pointer_array_get_item(ptr noundef %0, i32 noundef %1) #3 {
  %3 = alloca ptr, align 8
  %4 = alloca ptr, align 8
  %5 = alloca i32, align 4
  %6 = alloca ptr, align 8
  %7 = alloca i32, align 4
  store ptr %0, ptr %4, align 8, !tbaa !3
  store i32 %1, ptr %5, align 4, !tbaa !13
  call void @llvm.lifetime.start.p0(i64 8, ptr %6) #11
  %8 = load i32, ptr %5, align 4, !tbaa !13
  %9 = icmp sgt i32 0, %8
  br i1 %9, label %16, label %10

10:                                               ; preds = %2
  %11 = load ptr, ptr %4, align 8, !tbaa !3
  %12 = getelementptr inbounds nuw %struct.pmix_pointer_array_t, ptr %11, i32 0, i32 3
  %13 = load i32, ptr %12, align 8, !tbaa !33
  %14 = load i32, ptr %5, align 4, !tbaa !13
  %15 = icmp sle i32 %13, %14
  br label %16

16:                                               ; preds = %10, %2
  %17 = phi i1 [ true, %2 ], [ %15, %10 ]
  %18 = xor i1 %17, true
  %19 = xor i1 %18, true
  %20 = zext i1 %19 to i32
  %21 = sext i32 %20 to i64
  %22 = call i64 @llvm.expect.i64(i64 %21, i64 0)
  %23 = icmp ne i64 %22, 0
  br i1 %23, label %24, label %25

24:                                               ; preds = %16
  store ptr null, ptr %3, align 8
  store i32 1, ptr %7, align 4
  br label %34

25:                                               ; preds = %16
  %26 = load ptr, ptr %4, align 8, !tbaa !3
  %27 = getelementptr inbounds nuw %struct.pmix_pointer_array_t, ptr %26, i32 0, i32 7
  %28 = load ptr, ptr %27, align 8, !tbaa !36
  %29 = load i32, ptr %5, align 4, !tbaa !13
  %30 = sext i32 %29 to i64
  %31 = getelementptr inbounds ptr, ptr %28, i64 %30
  %32 = load ptr, ptr %31, align 8, !tbaa !8
  store ptr %32, ptr %6, align 8, !tbaa !8
  %33 = load ptr, ptr %6, align 8, !tbaa !8
  store ptr %33, ptr %3, align 8
  store i32 1, ptr %7, align 4
  br label %34

34:                                               ; preds = %25, %24
  call void @llvm.lifetime.end.p0(i64 8, ptr %6) #11
  %35 = load ptr, ptr %3, align 8
  ret ptr %35
}

; Function Attrs: nounwind uwtable
define i32 @pmix_bfrops_base_unpack_query(ptr noundef %0, ptr noundef %1, ptr noundef %2, ptr noundef %3, i16 noundef zeroext %4) #0 {
  %6 = alloca i32, align 4
  %7 = alloca ptr, align 8
  %8 = alloca ptr, align 8
  %9 = alloca ptr, align 8
  %10 = alloca ptr, align 8
  %11 = alloca i16, align 2
  %12 = alloca ptr, align 8
  %13 = alloca i32, align 4
  %14 = alloca i32, align 4
  %15 = alloca i32, align 4
  %16 = alloca i32, align 4
  %17 = alloca i32, align 4
  %18 = alloca ptr, align 8
  %19 = alloca i32, align 4
  %20 = alloca ptr, align 8
  %21 = alloca ptr, align 8
  %22 = alloca ptr, align 8
  store ptr %0, ptr %7, align 8, !tbaa !3
  store ptr %1, ptr %8, align 8, !tbaa !8
  store ptr %2, ptr %9, align 8, !tbaa !8
  store ptr %3, ptr %10, align 8, !tbaa !9
  store i16 %4, ptr %11, align 2, !tbaa !11
  call void @llvm.lifetime.start.p0(i64 8, ptr %12) #11
  call void @llvm.lifetime.start.p0(i64 4, ptr %13) #11
  call void @llvm.lifetime.start.p0(i64 4, ptr %14) #11
  call void @llvm.lifetime.start.p0(i64 4, ptr %15) #11
  call void @llvm.lifetime.start.p0(i64 4, ptr %16) #11
  call void @llvm.lifetime.start.p0(i64 4, ptr %17) #11
  %23 = load i32, ptr getelementptr inbounds nuw (%struct.pmix_mca_base_framework_t, ptr @pmix_bfrops_base_framework, i32 0, i32 11), align 4, !tbaa !15
  %24 = icmp sge i32 %23, 0
  br i1 %24, label %25, label %39

25:                                               ; preds = %5
  %26 = load i32, ptr getelementptr inbounds nuw (%struct.pmix_mca_base_framework_t, ptr @pmix_bfrops_base_framework, i32 0, i32 11), align 4, !tbaa !15
  %27 = icmp slt i32 %26, 64
  br i1 %27, label %28, label %39

28:                                               ; preds = %25
  %29 = load i32, ptr getelementptr inbounds nuw (%struct.pmix_mca_base_framework_t, ptr @pmix_bfrops_base_framework, i32 0, i32 11), align 4, !tbaa !15
  %30 = sext i32 %29 to i64
  %31 = getelementptr inbounds [0 x %struct.pmix_output_desc_t], ptr @pmix_output_info, i64 0, i64 %30
  %32 = getelementptr inbounds nuw %struct.pmix_output_desc_t, ptr %31, i32 0, i32 2
  %33 = load i32, ptr %32, align 4, !tbaa !26
  %34 = icmp sge i32 %33, 20
  br i1 %34, label %35, label %39

35:                                               ; preds = %28
  %36 = load i32, ptr getelementptr inbounds nuw (%struct.pmix_mca_base_framework_t, ptr @pmix_bfrops_base_framework, i32 0, i32 11), align 4, !tbaa !15
  %37 = load ptr, ptr %10, align 8, !tbaa !9
  %38 = load i32, ptr %37, align 4, !tbaa !13
  call void (i32, ptr, ...) @pmix_output(i32 noundef %36, ptr noundef @.str.29, i32 noundef %38)
  br label %39

39:                                               ; preds = %35, %28, %25, %5
  %40 = load ptr, ptr %9, align 8, !tbaa !8
  store ptr %40, ptr %12, align 8, !tbaa !167
  %41 = load ptr, ptr %10, align 8, !tbaa !9
  %42 = load i32, ptr %41, align 4, !tbaa !13
  store i32 %42, ptr %14, align 4, !tbaa !13
  store i32 0, ptr %13, align 4, !tbaa !13
  br label %43

43:                                               ; preds = %198, %39
  %44 = load i32, ptr %13, align 4, !tbaa !13
  %45 = load i32, ptr %14, align 4, !tbaa !13
  %46 = icmp slt i32 %44, %45
  br i1 %46, label %47, label %201

47:                                               ; preds = %43
  %48 = load ptr, ptr %12, align 8, !tbaa !167
  %49 = load i32, ptr %13, align 4, !tbaa !13
  %50 = sext i32 %49 to i64
  %51 = getelementptr inbounds %struct.pmix_query, ptr %48, i64 %50
  call void @PMIx_Query_construct(ptr noundef %51)
  store i32 1, ptr %15, align 4, !tbaa !13
  br label %52

52:                                               ; preds = %47
  call void @llvm.lifetime.start.p0(i64 8, ptr %18) #11
  %53 = load ptr, ptr %7, align 8, !tbaa !3
  %54 = call ptr @pmix_pointer_array_get_item(ptr noundef %53, i32 noundef 9)
  store ptr %54, ptr %18, align 8, !tbaa !8
  %55 = load ptr, ptr %18, align 8, !tbaa !8
  %56 = icmp eq ptr null, %55
  br i1 %56, label %57, label %58

57:                                               ; preds = %52
  store i32 -16, ptr %16, align 4, !tbaa !13
  br label %65

58:                                               ; preds = %52
  %59 = load ptr, ptr %18, align 8, !tbaa !8
  %60 = getelementptr inbounds nuw %struct.pmix_bfrop_type_info_t, ptr %59, i32 0, i32 4
  %61 = load ptr, ptr %60, align 8, !tbaa !31
  %62 = load ptr, ptr %7, align 8, !tbaa !3
  %63 = load ptr, ptr %8, align 8, !tbaa !8
  %64 = call i32 %61(ptr noundef %62, ptr noundef %63, ptr noundef %17, ptr noundef %15, i16 noundef zeroext 9)
  store i32 %64, ptr %16, align 4, !tbaa !13
  br label %65

65:                                               ; preds = %58, %57
  call void @llvm.lifetime.end.p0(i64 8, ptr %18) #11
  br label %66

66:                                               ; preds = %65
  br label %67

67:                                               ; preds = %66
  %68 = load i32, ptr %16, align 4, !tbaa !13
  %69 = icmp ne i32 0, %68
  br i1 %69, label %70, label %72

70:                                               ; preds = %67
  %71 = load i32, ptr %16, align 4, !tbaa !13
  store i32 %71, ptr %6, align 4
  store i32 1, ptr %19, align 4
  br label %202

72:                                               ; preds = %67
  %73 = load i32, ptr %17, align 4, !tbaa !13
  %74 = icmp slt i32 0, %73
  br i1 %74, label %75, label %116

75:                                               ; preds = %72
  %76 = load i32, ptr %17, align 4, !tbaa !13
  %77 = add nsw i32 %76, 1
  %78 = sext i32 %77 to i64
  %79 = call noalias ptr @calloc(i64 noundef %78, i64 noundef 8) #12
  %80 = load ptr, ptr %12, align 8, !tbaa !167
  %81 = load i32, ptr %13, align 4, !tbaa !13
  %82 = sext i32 %81 to i64
  %83 = getelementptr inbounds %struct.pmix_query, ptr %80, i64 %82
  %84 = getelementptr inbounds nuw %struct.pmix_query, ptr %83, i32 0, i32 0
  store ptr %79, ptr %84, align 8, !tbaa !169
  %85 = icmp eq ptr null, %79
  br i1 %85, label %86, label %87

86:                                               ; preds = %75
  store i32 -32, ptr %6, align 4
  store i32 1, ptr %19, align 4
  br label %202

87:                                               ; preds = %75
  %88 = load i32, ptr %17, align 4, !tbaa !13
  store i32 %88, ptr %15, align 4, !tbaa !13
  br label %89

89:                                               ; preds = %87
  call void @llvm.lifetime.start.p0(i64 8, ptr %20) #11
  %90 = load ptr, ptr %7, align 8, !tbaa !3
  %91 = call ptr @pmix_pointer_array_get_item(ptr noundef %90, i32 noundef 3)
  store ptr %91, ptr %20, align 8, !tbaa !8
  %92 = load ptr, ptr %20, align 8, !tbaa !8
  %93 = icmp eq ptr null, %92
  br i1 %93, label %94, label %95

94:                                               ; preds = %89
  store i32 -16, ptr %16, align 4, !tbaa !13
  br label %108

95:                                               ; preds = %89
  %96 = load ptr, ptr %20, align 8, !tbaa !8
  %97 = getelementptr inbounds nuw %struct.pmix_bfrop_type_info_t, ptr %96, i32 0, i32 4
  %98 = load ptr, ptr %97, align 8, !tbaa !31
  %99 = load ptr, ptr %7, align 8, !tbaa !3
  %100 = load ptr, ptr %8, align 8, !tbaa !8
  %101 = load ptr, ptr %12, align 8, !tbaa !167
  %102 = load i32, ptr %13, align 4, !tbaa !13
  %103 = sext i32 %102 to i64
  %104 = getelementptr inbounds %struct.pmix_query, ptr %101, i64 %103
  %105 = getelementptr inbounds nuw %struct.pmix_query, ptr %104, i32 0, i32 0
  %106 = load ptr, ptr %105, align 8, !tbaa !169
  %107 = call i32 %98(ptr noundef %99, ptr noundef %100, ptr noundef %106, ptr noundef %15, i16 noundef zeroext 3)
  store i32 %107, ptr %16, align 4, !tbaa !13
  br label %108

108:                                              ; preds = %95, %94
  call void @llvm.lifetime.end.p0(i64 8, ptr %20) #11
  br label %109

109:                                              ; preds = %108
  br label %110

110:                                              ; preds = %109
  %111 = load i32, ptr %16, align 4, !tbaa !13
  %112 = icmp ne i32 0, %111
  br i1 %112, label %113, label %115

113:                                              ; preds = %110
  %114 = load i32, ptr %16, align 4, !tbaa !13
  store i32 %114, ptr %6, align 4
  store i32 1, ptr %19, align 4
  br label %202

115:                                              ; preds = %110
  br label %116

116:                                              ; preds = %115, %72
  store i32 1, ptr %15, align 4, !tbaa !13
  br label %117

117:                                              ; preds = %116
  call void @llvm.lifetime.start.p0(i64 8, ptr %21) #11
  %118 = load ptr, ptr %7, align 8, !tbaa !3
  %119 = call ptr @pmix_pointer_array_get_item(ptr noundef %118, i32 noundef 4)
  store ptr %119, ptr %21, align 8, !tbaa !8
  %120 = load ptr, ptr %21, align 8, !tbaa !8
  %121 = icmp eq ptr null, %120
  br i1 %121, label %122, label %123

122:                                              ; preds = %117
  store i32 -16, ptr %16, align 4, !tbaa !13
  br label %135

123:                                              ; preds = %117
  %124 = load ptr, ptr %21, align 8, !tbaa !8
  %125 = getelementptr inbounds nuw %struct.pmix_bfrop_type_info_t, ptr %124, i32 0, i32 4
  %126 = load ptr, ptr %125, align 8, !tbaa !31
  %127 = load ptr, ptr %7, align 8, !tbaa !3
  %128 = load ptr, ptr %8, align 8, !tbaa !8
  %129 = load ptr, ptr %12, align 8, !tbaa !167
  %130 = load i32, ptr %13, align 4, !tbaa !13
  %131 = sext i32 %130 to i64
  %132 = getelementptr inbounds %struct.pmix_query, ptr %129, i64 %131
  %133 = getelementptr inbounds nuw %struct.pmix_query, ptr %132, i32 0, i32 2
  %134 = call i32 %126(ptr noundef %127, ptr noundef %128, ptr noundef %133, ptr noundef %15, i16 noundef zeroext 4)
  store i32 %134, ptr %16, align 4, !tbaa !13
  br label %135

135:                                              ; preds = %123, %122
  call void @llvm.lifetime.end.p0(i64 8, ptr %21) #11
  br label %136

136:                                              ; preds = %135
  br label %137

137:                                              ; preds = %136
  %138 = load i32, ptr %16, align 4, !tbaa !13
  %139 = icmp ne i32 0, %138
  br i1 %139, label %140, label %142

140:                                              ; preds = %137
  %141 = load i32, ptr %16, align 4, !tbaa !13
  store i32 %141, ptr %6, align 4
  store i32 1, ptr %19, align 4
  br label %202

142:                                              ; preds = %137
  %143 = load ptr, ptr %12, align 8, !tbaa !167
  %144 = load i32, ptr %13, align 4, !tbaa !13
  %145 = sext i32 %144 to i64
  %146 = getelementptr inbounds %struct.pmix_query, ptr %143, i64 %145
  %147 = getelementptr inbounds nuw %struct.pmix_query, ptr %146, i32 0, i32 2
  %148 = load i64, ptr %147, align 8, !tbaa !171
  %149 = icmp ult i64 0, %148
  br i1 %149, label %150, label %197

150:                                              ; preds = %142
  %151 = load ptr, ptr %12, align 8, !tbaa !167
  %152 = load i32, ptr %13, align 4, !tbaa !13
  %153 = sext i32 %152 to i64
  %154 = getelementptr inbounds %struct.pmix_query, ptr %151, i64 %153
  %155 = getelementptr inbounds nuw %struct.pmix_query, ptr %154, i32 0, i32 2
  %156 = load i64, ptr %155, align 8, !tbaa !171
  %157 = call ptr @PMIx_Info_create(i64 noundef %156)
  %158 = load ptr, ptr %12, align 8, !tbaa !167
  %159 = load i32, ptr %13, align 4, !tbaa !13
  %160 = sext i32 %159 to i64
  %161 = getelementptr inbounds %struct.pmix_query, ptr %158, i64 %160
  %162 = getelementptr inbounds nuw %struct.pmix_query, ptr %161, i32 0, i32 1
  store ptr %157, ptr %162, align 8, !tbaa !172
  %163 = load ptr, ptr %12, align 8, !tbaa !167
  %164 = load i32, ptr %13, align 4, !tbaa !13
  %165 = sext i32 %164 to i64
  %166 = getelementptr inbounds %struct.pmix_query, ptr %163, i64 %165
  %167 = getelementptr inbounds nuw %struct.pmix_query, ptr %166, i32 0, i32 2
  %168 = load i64, ptr %167, align 8, !tbaa !171
  %169 = trunc i64 %168 to i32
  store i32 %169, ptr %15, align 4, !tbaa !13
  br label %170

170:                                              ; preds = %150
  call void @llvm.lifetime.start.p0(i64 8, ptr %22) #11
  %171 = load ptr, ptr %7, align 8, !tbaa !3
  %172 = call ptr @pmix_pointer_array_get_item(ptr noundef %171, i32 noundef 24)
  store ptr %172, ptr %22, align 8, !tbaa !8
  %173 = load ptr, ptr %22, align 8, !tbaa !8
  %174 = icmp eq ptr null, %173
  br i1 %174, label %175, label %176

175:                                              ; preds = %170
  store i32 -16, ptr %16, align 4, !tbaa !13
  br label %189

176:                                              ; preds = %170
  %177 = load ptr, ptr %22, align 8, !tbaa !8
  %178 = getelementptr inbounds nuw %struct.pmix_bfrop_type_info_t, ptr %177, i32 0, i32 4
  %179 = load ptr, ptr %178, align 8, !tbaa !31
  %180 = load ptr, ptr %7, align 8, !tbaa !3
  %181 = load ptr, ptr %8, align 8, !tbaa !8
  %182 = load ptr, ptr %12, align 8, !tbaa !167
  %183 = load i32, ptr %13, align 4, !tbaa !13
  %184 = sext i32 %183 to i64
  %185 = getelementptr inbounds %struct.pmix_query, ptr %182, i64 %184
  %186 = getelementptr inbounds nuw %struct.pmix_query, ptr %185, i32 0, i32 1
  %187 = load ptr, ptr %186, align 8, !tbaa !172
  %188 = call i32 %179(ptr noundef %180, ptr noundef %181, ptr noundef %187, ptr noundef %15, i16 noundef zeroext 24)
  store i32 %188, ptr %16, align 4, !tbaa !13
  br label %189

189:                                              ; preds = %176, %175
  call void @llvm.lifetime.end.p0(i64 8, ptr %22) #11
  br label %190

190:                                              ; preds = %189
  br label %191

191:                                              ; preds = %190
  %192 = load i32, ptr %16, align 4, !tbaa !13
  %193 = icmp ne i32 0, %192
  br i1 %193, label %194, label %196

194:                                              ; preds = %191
  %195 = load i32, ptr %16, align 4, !tbaa !13
  store i32 %195, ptr %6, align 4
  store i32 1, ptr %19, align 4
  br label %202

196:                                              ; preds = %191
  br label %197

197:                                              ; preds = %196, %142
  br label %198

198:                                              ; preds = %197
  %199 = load i32, ptr %13, align 4, !tbaa !13
  %200 = add nsw i32 %199, 1
  store i32 %200, ptr %13, align 4, !tbaa !13
  br label %43, !llvm.loop !173

201:                                              ; preds = %43
  store i32 0, ptr %6, align 4
  store i32 1, ptr %19, align 4
  br label %202

202:                                              ; preds = %201, %194, %140, %113, %86, %70
  call void @llvm.lifetime.end.p0(i64 4, ptr %17) #11
  call void @llvm.lifetime.end.p0(i64 4, ptr %16) #11
  call void @llvm.lifetime.end.p0(i64 4, ptr %15) #11
  call void @llvm.lifetime.end.p0(i64 4, ptr %14) #11
  call void @llvm.lifetime.end.p0(i64 4, ptr %13) #11
  call void @llvm.lifetime.end.p0(i64 8, ptr %12) #11
  %203 = load i32, ptr %6, align 4
  ret i32 %203
}