; Function Attrs: nounwind uwtable
define i32 @pmix_bfrops_base_unpack_query(ptr noundef %0, ptr noundef %1, ptr noundef %2, ptr noundef readonly captures(none) %3, i16 noundef zeroext %4) local_unnamed_addr #0 {
  %6 = alloca i32, align 4
  %7 = alloca i32, align 4
  call void @llvm.lifetime.start.p0(i64 4, ptr nonnull %6) #10
  call void @llvm.lifetime.start.p0(i64 4, ptr nonnull %7) #10
  %8 = load i32, ptr getelementptr inbounds nuw (i8, ptr @pmix_bfrops_base_framework, i64 76), align 4, !tbaa !7
  %or.cond = icmp ult i32 %8, 64
  br i1 %or.cond, label %9, label %16

9:                                                ; preds = %5
  %10 = zext nneg i32 %8 to i64
  %11 = getelementptr inbounds nuw [0 x %struct.pmix_output_desc_t], ptr @pmix_output_info, i64 0, i64 %10, i32 2
  %12 = load i32, ptr %11, align 4, !tbaa !19
  %13 = icmp sgt i32 %12, 19
  br i1 %13, label %14, label %16

14:                                               ; preds = %9
  %15 = load i32, ptr %3, align 4, !tbaa !3
  tail call void (i32, ptr, ...) @pmix_output(i32 noundef %8, ptr noundef nonnull @.str.29, i32 noundef %15) #10
  br label %16

16:                                               ; preds = %14, %9, %5
  %17 = load i32, ptr %3, align 4, !tbaa !3
  %18 = getelementptr inbounds nuw i8, ptr %0, i64 152
  %19 = icmp sgt i32 %17, 0
  br i1 %19, label %.lr.ph, label %.thread

.lr.ph:                                           ; preds = %16
  %20 = getelementptr inbounds nuw i8, ptr %0, i64 128
  %wide.trip.count = zext nneg i32 %17 to i64
  br label %21

21:                                               ; preds = %.lr.ph, %77
  %indvars.iv = phi i64 [ 0, %.lr.ph ], [ %indvars.iv.next, %77 ]
  %22 = getelementptr inbounds nuw %struct.pmix_query, ptr %2, i64 %indvars.iv
  call void @PMIx_Query_construct(ptr noundef %22) #10
  store i32 1, ptr %6, align 4, !tbaa !3
  %23 = load i32, ptr %20, align 8, !tbaa !26
  %.not.i = icmp sgt i32 %23, 9
  br i1 %.not.i, label %pmix_pointer_array_get_item.exit, label %.thread, !prof !29

pmix_pointer_array_get_item.exit:                 ; preds = %21
  %24 = load ptr, ptr %18, align 8, !tbaa !30
  %25 = getelementptr inbounds nuw i8, ptr %24, i64 72
  %26 = load ptr, ptr %25, align 8, !tbaa !31
  %27 = icmp eq ptr %26, null
  br i1 %27, label %.thread, label %28

28:                                               ; preds = %pmix_pointer_array_get_item.exit
  %29 = getelementptr inbounds nuw i8, ptr %26, i64 144
  %30 = load ptr, ptr %29, align 8, !tbaa !32
  %31 = call i32 %30(ptr noundef nonnull %0, ptr noundef %1, ptr noundef nonnull %7, ptr noundef nonnull %6, i16 noundef zeroext 9) #10
  %.not = icmp eq i32 %31, 0
  br i1 %.not, label %32, label %.thread

32:                                               ; preds = %28
  %33 = load i32, ptr %7, align 4, !tbaa !3
  %34 = icmp sgt i32 %33, 0
  br i1 %34, label %35, label %50

35:                                               ; preds = %32
  %36 = add nuw nsw i32 %33, 1
  %37 = zext nneg i32 %36 to i64
  %38 = call noalias ptr @calloc(i64 noundef %37, i64 noundef 8) #11
  store ptr %38, ptr %22, align 8, !tbaa !114
  %39 = icmp eq ptr %38, null
  br i1 %39, label %.thread, label %40

40:                                               ; preds = %35
  store i32 %33, ptr %6, align 4, !tbaa !3
  %41 = load i32, ptr %20, align 8, !tbaa !26
  %.not.i66 = icmp sgt i32 %41, 3
  br i1 %.not.i66, label %pmix_pointer_array_get_item.exit68, label %.thread, !prof !29

pmix_pointer_array_get_item.exit68:               ; preds = %40
  %42 = load ptr, ptr %18, align 8, !tbaa !30
  %43 = getelementptr inbounds nuw i8, ptr %42, i64 24
  %44 = load ptr, ptr %43, align 8, !tbaa !31
  %45 = icmp eq ptr %44, null
  br i1 %45, label %.thread, label %46

46:                                               ; preds = %pmix_pointer_array_get_item.exit68
  %47 = getelementptr inbounds nuw i8, ptr %44, i64 144
  %48 = load ptr, ptr %47, align 8, !tbaa !32
  %49 = call i32 %48(ptr noundef nonnull %0, ptr noundef %1, ptr noundef nonnull %38, ptr noundef nonnull %6, i16 noundef zeroext 3) #10
  %.not62 = icmp eq i32 %49, 0
  br i1 %.not62, label %50, label %.thread

50:                                               ; preds = %46, %32
  store i32 1, ptr %6, align 4, !tbaa !3
  %51 = load i32, ptr %20, align 8, !tbaa !26
  %.not.i69 = icmp sgt i32 %51, 4
  br i1 %.not.i69, label %pmix_pointer_array_get_item.exit71, label %.thread, !prof !29

pmix_pointer_array_get_item.exit71:               ; preds = %50
  %52 = load ptr, ptr %18, align 8, !tbaa !30
  %53 = getelementptr inbounds nuw i8, ptr %52, i64 32
  %54 = load ptr, ptr %53, align 8, !tbaa !31
  %55 = icmp eq ptr %54, null
  br i1 %55, label %.thread, label %56

56:                                               ; preds = %pmix_pointer_array_get_item.exit71
  %57 = getelementptr inbounds nuw i8, ptr %54, i64 144
  %58 = load ptr, ptr %57, align 8, !tbaa !32
  %59 = getelementptr inbounds nuw i8, ptr %22, i64 16
  %60 = call i32 %58(ptr noundef nonnull %0, ptr noundef %1, ptr noundef nonnull %59, ptr noundef nonnull %6, i16 noundef zeroext 4) #10
  %.not63 = icmp eq i32 %60, 0
  br i1 %.not63, label %61, label %.thread

61:                                               ; preds = %56
  %62 = load i64, ptr %59, align 8, !tbaa !116
  %.not64 = icmp eq i64 %62, 0
  br i1 %.not64, label %77, label %63

63:                                               ; preds = %61
  %64 = call ptr @PMIx_Info_create(i64 noundef %62) #10
  %65 = getelementptr inbounds nuw i8, ptr %22, i64 8
  store ptr %64, ptr %65, align 8, !tbaa !117
  %66 = load i64, ptr %59, align 8, !tbaa !116
  %67 = trunc i64 %66 to i32
  store i32 %67, ptr %6, align 4, !tbaa !3
  %68 = load i32, ptr %20, align 8, !tbaa !26
  %.not.i72 = icmp sgt i32 %68, 24
  br i1 %.not.i72, label %pmix_pointer_array_get_item.exit74, label %.thread, !prof !29

pmix_pointer_array_get_item.exit74:               ; preds = %63
  %69 = load ptr, ptr %18, align 8, !tbaa !30
  %70 = getelementptr inbounds nuw i8, ptr %69, i64 192
  %71 = load ptr, ptr %70, align 8, !tbaa !31
  %72 = icmp eq ptr %71, null
  br i1 %72, label %.thread, label %73

73:                                               ; preds = %pmix_pointer_array_get_item.exit74
  %74 = getelementptr inbounds nuw i8, ptr %71, i64 144
  %75 = load ptr, ptr %74, align 8, !tbaa !32
  %76 = call i32 %75(ptr noundef nonnull %0, ptr noundef %1, ptr noundef %64, ptr noundef nonnull %6, i16 noundef zeroext 24) #10
  %.not65 = icmp eq i32 %76, 0
  br i1 %.not65, label %77, label %.thread

77:                                               ; preds = %61, %73
  %indvars.iv.next = add nuw nsw i64 %indvars.iv, 1
  %exitcond.not = icmp eq i64 %indvars.iv.next, %wide.trip.count
  br i1 %exitcond.not, label %.thread, label %21, !llvm.loop !118

.thread:                                          ; preds = %28, %35, %46, %56, %73, %77, %pmix_pointer_array_get_item.exit, %21, %pmix_pointer_array_get_item.exit68, %40, %pmix_pointer_array_get_item.exit71, %50, %pmix_pointer_array_get_item.exit74, %63, %16
  %.0 = phi i32 [ 0, %16 ], [ -16, %63 ], [ -16, %pmix_pointer_array_get_item.exit74 ], [ -16, %50 ], [ -16, %pmix_pointer_array_get_item.exit71 ], [ -16, %40 ], [ -16, %pmix_pointer_array_get_item.exit68 ], [ -16, %21 ], [ -16, %pmix_pointer_array_get_item.exit ], [ 0, %77 ], [ %76, %73 ], [ %60, %56 ], [ %49, %46 ], [ -32, %35 ], [ %31, %28 ]
  call void @llvm.lifetime.end.p0(i64 4, ptr nonnull %7) #10
  call void @llvm.lifetime.end.p0(i64 4, ptr nonnull %6) #10
  ret i32 %.0
}